target datalayout = "e-m:e-p270:32:32-p271:32:32-p272:64:64-i64:64-i128:128-f80:128-n8:16:32:64-S128"
target triple = "x86_64-pc-linux-gnu"

%"class.clang::SourceLocation" = type { i32 }
%"class.clang::SourceRange" = type { %"class.clang::SourceLocation", %"class.clang::SourceLocation" }
%"class.clang::InheritableAttr.base" = type { %"class.clang::Attr.base" }
%"class.clang::Attr.base" = type <{ %"class.clang::AttributeCommonInfo", i16, i8 }>
%"class.clang::AttributeCommonInfo" = type { ptr, ptr, %"class.clang::SourceRange", %"class.clang::SourceLocation", i32 }
%"struct.clang::Sema::FormatStringInfo" = type { i32, i32, i32 }
%"class.clang::FormatAttr" = type { %"class.clang::InheritableAttr.base", ptr, i32, i32 }

; Function Attrs: mustprogress nounwind uwtable
define linkonce_odr hidden noundef i32 @_ZNK5clang10FormatAttr12getFormatIdxEv(ptr noundef nonnull align 8 dereferenceable(56) %0) #0 comdat align 2 {
  %2 = alloca ptr, align 8
  store ptr %0, ptr %2, align 8
  %3 = load ptr, ptr %2, align 8
  %4 = getelementptr inbounds nuw %"class.clang::FormatAttr", ptr %3, i32 0, i32 2
  %5 = load i32, ptr %4, align 8
  ret i32 %5
}

; Function Attrs: mustprogress nounwind uwtable
define linkonce_odr hidden noundef i32 @_ZNK5clang10FormatAttr11getFirstArgEv(ptr noundef nonnull align 8 dereferenceable(56) %0) #0 comdat align 2 {
  %2 = alloca ptr, align 8
  store ptr %0, ptr %2, align 8
  %3 = load ptr, ptr %2, align 8
  %4 = getelementptr inbounds nuw %"class.clang::FormatAttr", ptr %3, i32 0, i32 3
  %5 = load i32, ptr %4, align 4
  ret i32 %5
}

; Function Attrs: mustprogress nounwind uwtable
define dso_local noundef zeroext i1 @_ZN5clang4Sema19getFormatStringInfoEPKNS_10FormatAttrEbbPNS0_16FormatStringInfoE(ptr noundef %0, i1 noundef zeroext %1, i1 noundef zeroext %2, ptr noundef %3) #0 align 2 {
  %5 = alloca i1, align 1
  %6 = alloca ptr, align 8
  %7 = alloca i8, align 1
  %8 = alloca i8, align 1
  %9 = alloca ptr, align 8
  store ptr %0, ptr %6, align 8
  %10 = zext i1 %1 to i8
  store i8 %10, ptr %7, align 1
  %11 = zext i1 %2 to i8
  store i8 %11, ptr %8, align 1
  store ptr %3, ptr %9, align 8
  %12 = load ptr, ptr %6, align 8
  %13 = call noundef i32 @_ZNK5clang10FormatAttr11getFirstArgEv(ptr noundef nonnull align 8 dereferenceable(56) %12)
  %14 = icmp eq i32 %13, 0
  br i1 %14, label %15, label %18

15:                                               ; preds = %4
  %16 = load ptr, ptr %9, align 8
  %17 = getelementptr inbounds nuw %"struct.clang::Sema::FormatStringInfo", ptr %16, i32 0, i32 2
  store i32 2, ptr %17, align 4
  br label %28

18:                                               ; preds = %4
  %19 = load i8, ptr %8, align 1
  %20 = trunc i8 %19 to i1
  br i1 %20, label %21, label %24

21:                                               ; preds = %18
  %22 = load ptr, ptr %9, align 8
  %23 = getelementptr inbounds nuw %"struct.clang::Sema::FormatStringInfo", ptr %22, i32 0, i32 2
  store i32 1, ptr %23, align 4
  br label %27

24:                                               ; preds = %18
  %25 = load ptr, ptr %9, align 8
  %26 = getelementptr inbounds nuw %"struct.clang::Sema::FormatStringInfo", ptr %25, i32 0, i32 2
  store i32 0, ptr %26, align 4
  br label %27

27:                                               ; preds = %24, %21
  br label %28

28:                                               ; preds = %27, %15
  %29 = load ptr, ptr %6, align 8
  %30 = call noundef i32 @_ZNK5clang10FormatAttr12getFormatIdxEv(ptr noundef nonnull align 8 dereferenceable(56) %29)
  %31 = sub nsw i32 %30, 1
  %32 = load ptr, ptr %9, align 8
  %33 = getelementptr inbounds nuw %"struct.clang::Sema::FormatStringInfo", ptr %32, i32 0, i32 0
  store i32 %31, ptr %33, align 4
  %34 = load ptr, ptr %9, align 8
  %35 = getelementptr inbounds nuw %"struct.clang::Sema::FormatStringInfo", ptr %34, i32 0, i32 2
  %36 = load i32, ptr %35, align 4
  %37 = icmp eq i32 %36, 2
  br i1 %37, label %38, label %39

38:                                               ; preds = %28
  br label %43

39:                                               ; preds = %28
  %40 = load ptr, ptr %6, align 8
  %41 = call noundef i32 @_ZNK5clang10FormatAttr11getFirstArgEv(ptr noundef nonnull align 8 dereferenceable(56) %40)
  %42 = sub nsw i32 %41, 1
  br label %43

43:                                               ; preds = %39, %38
  %44 = phi i32 [ 0, %38 ], [ %42, %39 ]
  %45 = load ptr, ptr %9, align 8
  %46 = getelementptr inbounds nuw %"struct.clang::Sema::FormatStringInfo", ptr %45, i32 0, i32 1
  store i32 %44, ptr %46, align 4
  %47 = load i8, ptr %7, align 1
  %48 = trunc i8 %47 to i1
  br i1 %48, label %49, label %70

49:                                               ; preds = %43
  %50 = load ptr, ptr %9, align 8
  %51 = getelementptr inbounds nuw %"struct.clang::Sema::FormatStringInfo", ptr %50, i32 0, i32 0
  %52 = load i32, ptr %51, align 4
  %53 = icmp eq i32 %52, 0
  br i1 %53, label %54, label %55

54:                                               ; preds = %49
  store i1 false, ptr %5, align 1
  br label %71

55:                                               ; preds = %49
  %56 = load ptr, ptr %9, align 8
  %57 = getelementptr inbounds nuw %"struct.clang::Sema::FormatStringInfo", ptr %56, i32 0, i32 0
  %58 = load i32, ptr %57, align 4
  %59 = add i32 %58, -1
  store i32 %59, ptr %57, align 4
  %60 = load ptr, ptr %9, align 8
  %61 = getelementptr inbounds nuw %"struct.clang::Sema::FormatStringInfo", ptr %60, i32 0, i32 1
  %62 = load i32, ptr %61, align 4
  %63 = icmp ne i32 %62, 0
  br i1 %63, label %64, label %69

64:                                               ; preds = %55
  %65 = load ptr, ptr %9, align 8
  %66 = getelementptr inbounds nuw %"struct.clang::Sema::FormatStringInfo", ptr %65, i32 0, i32 1
  %67 = load i32, ptr %66, align 4
  %68 = add i32 %67, -1
  store i32 %68, ptr %66, align 4
  br label %69

69:                                               ; preds = %64, %55
  br label %70

70:                                               ; preds = %69, %43
  store i1 true, ptr %5, align 1
  br label %71

71:                                               ; preds = %70, %54
  %72 = load i1, ptr %5, align 1
  ret i1 %72
}