; Function Attrs: mustprogress nofree norecurse nosync nounwind willreturn memory(argmem: readwrite) uwtable
define dso_local noundef zeroext i1 @_ZN5clang4Sema19getFormatStringInfoEPKNS_10FormatAttrEbbPNS0_16FormatStringInfoE(ptr nocapture noundef readonly %0, i1 noundef zeroext %1, i1 noundef zeroext %2, ptr nocapture noundef writeonly %3) local_unnamed_addr #6 align 2 {
  %5 = getelementptr inbounds nuw i8, ptr %0, i64 52
  %6 = load i32, ptr %5, align 4
  %7 = icmp eq i32 %6, 0
  %8 = getelementptr inbounds nuw i8, ptr %3, i64 8
  br i1 %7, label %15, label %9

9:                                                ; preds = %4
  %. = zext i1 %2 to i32
  store i32 %., ptr %8, align 4
  %10 = getelementptr inbounds nuw i8, ptr %0, i64 48
  %11 = load i32, ptr %10, align 8
  %12 = add nsw i32 %11, -1
  store i32 %12, ptr %3, align 4
  %13 = load i32, ptr %5, align 4
  %14 = add nsw i32 %13, -1
  br label %19

15:                                               ; preds = %4
  store i32 2, ptr %8, align 4
  %16 = getelementptr inbounds nuw i8, ptr %0, i64 48
  %17 = load i32, ptr %16, align 8
  %18 = add nsw i32 %17, -1
  store i32 %18, ptr %3, align 4
  br label %19

19:                                               ; preds = %15, %9
  %20 = phi i32 [ %12, %9 ], [ %18, %15 ]
  %21 = phi i32 [ %11, %9 ], [ %17, %15 ]
  %22 = phi i32 [ %14, %9 ], [ 0, %15 ]
  %23 = getelementptr inbounds nuw i8, ptr %3, i64 4
  store i32 %22, ptr %23, align 4
  br i1 %1, label %24, label %30

24:                                               ; preds = %19
  %25 = icmp eq i32 %20, 0
  br i1 %25, label %30, label %26

26:                                               ; preds = %24
  %27 = add i32 %21, -2
  store i32 %27, ptr %3, align 4
  %.not = icmp eq i32 %22, 0
  br i1 %.not, label %30, label %28

28:                                               ; preds = %26
  %29 = add i32 %22, -1
  store i32 %29, ptr %23, align 4
  br label %30

30:                                               ; preds = %19, %28, %26, %24
  %.0 = phi i1 [ false, %24 ], [ true, %26 ], [ true, %28 ], [ true, %19 ]
  ret i1 %.0
}